target datalayout = "e-m:e-p270:32:32-p271:32:32-p272:64:64-i64:64-i128:128-f80:128-n8:16:32:64-S128"
target triple = "x86_64-pc-linux-gnu"

%struct.prov_aes_xts_ctx_st = type { %struct.prov_cipher_ctx_st, %union.anon.0, %union.anon.0, %struct.xts128_context, ptr, %union.anon.1 }
%struct.prov_cipher_ctx_st = type { [16 x i8], [16 x i8], [16 x i8], ptr, %union.anon, i32, i64, i64, i64, i64, i32, i8, i32, ptr, i32, i64, i32, i64, i32, ptr, ptr, ptr }
%union.anon = type { ptr }
%union.anon.0 = type { double, [240 x i8] }
%struct.xts128_context = type { ptr, ptr, ptr, ptr }
%union.anon.1 = type { i32 }
%struct.prov_cipher_hw_st = type { ptr, ptr, ptr }

@.str = private unnamed_addr constant [62 x i8] c"../openssl/providers/implementations/ciphers/cipher_aes_xts.c\00", align 1

; Function Attrs: nounwind uwtable
define internal ptr @aes_xts_dupctx(ptr noundef %0) #0 {
  %2 = alloca ptr, align 8
  %3 = alloca ptr, align 8
  %4 = alloca ptr, align 8
  %5 = alloca ptr, align 8
  %6 = alloca i32, align 4
  store ptr %0, ptr %3, align 8, !tbaa !3
  call void @llvm.lifetime.start.p0(i64 8, ptr %4) #4
  %7 = load ptr, ptr %3, align 8, !tbaa !3
  store ptr %7, ptr %4, align 8, !tbaa !15
  call void @llvm.lifetime.start.p0(i64 8, ptr %5) #4
  store ptr null, ptr %5, align 8, !tbaa !15
  %8 = call i32 @ossl_prov_is_running()
  %9 = icmp ne i32 %8, 0
  br i1 %9, label %11, label %10

10:                                               ; preds = %1
  store ptr null, ptr %2, align 8
  store i32 1, ptr %6, align 4
  br label %60

11:                                               ; preds = %1
  %12 = load ptr, ptr %4, align 8, !tbaa !15
  %13 = getelementptr inbounds nuw %struct.prov_aes_xts_ctx_st, ptr %12, i32 0, i32 3
  %14 = getelementptr inbounds nuw %struct.xts128_context, ptr %13, i32 0, i32 0
  %15 = load ptr, ptr %14, align 8, !tbaa !17
  %16 = icmp ne ptr %15, null
  br i1 %16, label %17, label %27

17:                                               ; preds = %11
  %18 = load ptr, ptr %4, align 8, !tbaa !15
  %19 = getelementptr inbounds nuw %struct.prov_aes_xts_ctx_st, ptr %18, i32 0, i32 3
  %20 = getelementptr inbounds nuw %struct.xts128_context, ptr %19, i32 0, i32 0
  %21 = load ptr, ptr %20, align 8, !tbaa !17
  %22 = load ptr, ptr %4, align 8, !tbaa !15
  %23 = getelementptr inbounds nuw %struct.prov_aes_xts_ctx_st, ptr %22, i32 0, i32 1
  %24 = icmp ne ptr %21, %23
  br i1 %24, label %25, label %26

25:                                               ; preds = %17
  store ptr null, ptr %2, align 8
  store i32 1, ptr %6, align 4
  br label %60

26:                                               ; preds = %17
  br label %27

27:                                               ; preds = %26, %11
  %28 = load ptr, ptr %4, align 8, !tbaa !15
  %29 = getelementptr inbounds nuw %struct.prov_aes_xts_ctx_st, ptr %28, i32 0, i32 3
  %30 = getelementptr inbounds nuw %struct.xts128_context, ptr %29, i32 0, i32 1
  %31 = load ptr, ptr %30, align 8, !tbaa !24
  %32 = icmp ne ptr %31, null
  br i1 %32, label %33, label %43

33:                                               ; preds = %27
  %34 = load ptr, ptr %4, align 8, !tbaa !15
  %35 = getelementptr inbounds nuw %struct.prov_aes_xts_ctx_st, ptr %34, i32 0, i32 3
  %36 = getelementptr inbounds nuw %struct.xts128_context, ptr %35, i32 0, i32 1
  %37 = load ptr, ptr %36, align 8, !tbaa !24
  %38 = load ptr, ptr %4, align 8, !tbaa !15
  %39 = getelementptr inbounds nuw %struct.prov_aes_xts_ctx_st, ptr %38, i32 0, i32 2
  %40 = icmp ne ptr %37, %39
  br i1 %40, label %41, label %42

41:                                               ; preds = %33
  store ptr null, ptr %2, align 8
  store i32 1, ptr %6, align 4
  br label %60

42:                                               ; preds = %33
  br label %43

43:                                               ; preds = %42, %27
  %44 = call noalias ptr @CRYPTO_malloc(i64 noundef 736, ptr noundef @.str, i32 noundef 169)
  store ptr %44, ptr %5, align 8, !tbaa !15
  %45 = load ptr, ptr %5, align 8, !tbaa !15
  %46 = icmp eq ptr %45, null
  br i1 %46, label %47, label %48

47:                                               ; preds = %43
  store ptr null, ptr %2, align 8
  store i32 1, ptr %6, align 4
  br label %60

48:                                               ; preds = %43
  %49 = load ptr, ptr %4, align 8, !tbaa !15
  %50 = getelementptr inbounds nuw %struct.prov_aes_xts_ctx_st, ptr %49, i32 0, i32 0
  %51 = getelementptr inbounds nuw %struct.prov_cipher_ctx_st, ptr %50, i32 0, i32 19
  %52 = load ptr, ptr %51, align 8, !tbaa !26
  %53 = getelementptr inbounds nuw %struct.prov_cipher_hw_st, ptr %52, i32 0, i32 2
  %54 = load ptr, ptr %53, align 8, !tbaa !27
  %55 = load ptr, ptr %5, align 8, !tbaa !15
  %56 = getelementptr inbounds nuw %struct.prov_aes_xts_ctx_st, ptr %55, i32 0, i32 0
  %57 = load ptr, ptr %4, align 8, !tbaa !15
  %58 = getelementptr inbounds nuw %struct.prov_aes_xts_ctx_st, ptr %57, i32 0, i32 0
  call void %54(ptr noundef %56, ptr noundef %58)
  %59 = load ptr, ptr %5, align 8, !tbaa !15
  store ptr %59, ptr %2, align 8
  store i32 1, ptr %6, align 4
  br label %60

60:                                               ; preds = %48, %47, %41, %25, %10
  call void @llvm.lifetime.end.p0(i64 8, ptr %5) #4
  call void @llvm.lifetime.end.p0(i64 8, ptr %4) #4
  %61 = load ptr, ptr %2, align 8
  ret ptr %61
}